target datalayout = "e-m:e-p270:32:32-p271:32:32-p272:64:64-i64:64-i128:128-f80:128-n8:16:32:64-S128"
target triple = "x86_64-pc-linux-gnu"

%struct.aeron_packet_info_t = type { i32, i32, i32, i32, i32, i32, i32, i64, i32, i32, i16, i8 }
%struct.aeron_msg_t_stct = type { ptr, ptr, ptr, i32, i32, i32, i32, i32, i32, i32, i32, i32, i32, i8 }
%struct.aeron_msg_fragment_t_stct = type { ptr, i32, i32, i32, i32, i32, i8 }

; Function Attrs: null_pointer_is_valid sspstrong uwtable
define internal ptr @aeron_msg_fragment_find(ptr noundef %0, ptr noundef %1) #0 {
  %3 = alloca ptr, align 8
  %4 = alloca ptr, align 8
  %5 = alloca ptr, align 8
  %6 = alloca ptr, align 8
  %7 = alloca ptr, align 8
  %8 = alloca i32, align 4
  store ptr %0, ptr %4, align 8
  store ptr %1, ptr %5, align 8
  call void @llvm.lifetime.start.p0(i64 8, ptr %6) #15
  store ptr null, ptr %6, align 8
  call void @llvm.lifetime.start.p0(i64 8, ptr %7) #15
  %9 = load ptr, ptr %4, align 8
  %10 = getelementptr inbounds nuw %struct.aeron_msg_t_stct, ptr %9, i32 0, i32 4
  %11 = load i32, ptr %10, align 4
  %12 = load ptr, ptr %5, align 8
  %13 = getelementptr inbounds nuw %struct.aeron_packet_info_t, ptr %12, i32 0, i32 3
  %14 = load i32, ptr %13, align 4
  %15 = icmp ult i32 %11, %14
  br i1 %15, label %16, label %17

16:                                               ; preds = %2
  store ptr null, ptr %3, align 8
  store i32 1, ptr %8, align 4
  br label %45

17:                                               ; preds = %2
  %18 = load ptr, ptr %4, align 8
  %19 = getelementptr inbounds nuw %struct.aeron_msg_t_stct, ptr %18, i32 0, i32 0
  %20 = load ptr, ptr %19, align 8
  %21 = call ptr @wmem_list_head(ptr noundef %20)
  store ptr %21, ptr %7, align 8
  br label %22

22:                                               ; preds = %40, %17
  %23 = load ptr, ptr %7, align 8
  %24 = icmp ne ptr %23, null
  br i1 %24, label %25, label %43

25:                                               ; preds = %22
  %26 = load ptr, ptr %7, align 8
  %27 = call ptr @wmem_list_frame_data(ptr noundef %26)
  store ptr %27, ptr %6, align 8
  %28 = load ptr, ptr %6, align 8
  %29 = icmp ne ptr %28, null
  br i1 %29, label %30, label %40

30:                                               ; preds = %25
  %31 = load ptr, ptr %6, align 8
  %32 = getelementptr inbounds nuw %struct.aeron_msg_fragment_t_stct, ptr %31, i32 0, i32 1
  %33 = load i32, ptr %32, align 8
  %34 = load ptr, ptr %5, align 8
  %35 = getelementptr inbounds nuw %struct.aeron_packet_info_t, ptr %34, i32 0, i32 3
  %36 = load i32, ptr %35, align 4
  %37 = icmp eq i32 %33, %36
  br i1 %37, label %38, label %39

38:                                               ; preds = %30
  br label %43

39:                                               ; preds = %30
  br label %40

40:                                               ; preds = %39, %25
  %41 = load ptr, ptr %7, align 8
  %42 = call ptr @wmem_list_frame_next(ptr noundef %41)
  store ptr %42, ptr %7, align 8
  br label %22, !llvm.loop !17

43:                                               ; preds = %38, %22
  %44 = load ptr, ptr %6, align 8
  store ptr %44, ptr %3, align 8
  store i32 1, ptr %8, align 4
  br label %45

45:                                               ; preds = %43, %16
  call void @llvm.lifetime.end.p0(i64 8, ptr %7) #15
  call void @llvm.lifetime.end.p0(i64 8, ptr %6) #15
  %46 = load ptr, ptr %3, align 8
  ret ptr %46
}