; Function Attrs: null_pointer_is_valid sspstrong uwtable
define internal fastcc ptr @aeron_msg_fragment_find(ptr noundef nonnull readonly captures(none) %0, ptr noundef readonly captures(none) %1) unnamed_addr #0 {
  %3 = getelementptr inbounds nuw i8, ptr %0, i64 28
  %4 = load i32, ptr %3, align 4
  %5 = getelementptr inbounds nuw i8, ptr %1, i64 12
  %6 = load i32, ptr %5, align 4
  %7 = icmp ult i32 %4, %6
  br i1 %7, label %.loopexit, label %8

8:                                                ; preds = %2
  %9 = load ptr, ptr %0, align 8
  %10 = tail call ptr @wmem_list_head(ptr noundef %9)
  %.not15 = icmp eq ptr %10, null
  br i1 %.not15, label %.loopexit, label %.lr.ph

.lr.ph:                                           ; preds = %8, %17
  %.016 = phi ptr [ %18, %17 ], [ %10, %8 ]
  %11 = tail call ptr @wmem_list_frame_data(ptr noundef nonnull %.016)
  %.not14 = icmp eq ptr %11, null
  br i1 %.not14, label %17, label %12

12:                                               ; preds = %.lr.ph
  %13 = getelementptr inbounds nuw i8, ptr %11, i64 8
  %14 = load i32, ptr %13, align 8
  %15 = load i32, ptr %5, align 4
  %16 = icmp eq i32 %14, %15
  br i1 %16, label %.loopexit, label %17

17:                                               ; preds = %12, %.lr.ph
  %18 = tail call ptr @wmem_list_frame_next(ptr noundef nonnull %.016)
  %.not = icmp eq ptr %18, null
  br i1 %.not, label %.loopexit, label %.lr.ph, !llvm.loop !15

.loopexit:                                        ; preds = %12, %17, %8, %2
  %.012 = phi ptr [ null, %2 ], [ null, %8 ], [ %11, %17 ], [ %11, %12 ]
  ret ptr %.012
}